target datalayout = "e-m:e-p270:32:32-p271:32:32-p272:64:64-i64:64-i128:128-f80:128-n8:16:32:64-S128"
target triple = "x86_64-pc-linux-gnu"

%"class.icu_77::FieldPositionHandler" = type <{ ptr, i32, [4 x i8] }>
%"class.icu_77::FieldPositionOnlyHandler" = type <{ %"class.icu_77::FieldPositionHandler.base", [4 x i8], ptr, i8, i8, [6 x i8] }>
%"class.icu_77::FieldPositionHandler.base" = type <{ ptr, i32 }>

; Function Attrs: inlinehint mustprogress nounwind uwtable
define linkonce_odr void @_ZN6icu_7720FieldPositionHandlerC2Ev(ptr noundef nonnull align 8 dereferenceable(12) %0) unnamed_addr #2 comdat align 2 {
  %2 = alloca ptr, align 8
  store ptr %0, ptr %2, align 8, !tbaa !3
  %3 = load ptr, ptr %2, align 8
  store ptr getelementptr inbounds inrange(-16, 40) ({ [7 x ptr] }, ptr @_ZTVN6icu_7720FieldPositionHandlerE, i32 0, i32 0, i32 2), ptr %3, align 8, !tbaa !16
  %4 = getelementptr inbounds nuw %"class.icu_77::FieldPositionHandler", ptr %3, i32 0, i32 1
  store i32 0, ptr %4, align 8, !tbaa !10
  ret void
}

; Function Attrs: mustprogress nounwind uwtable
define void @_ZN6icu_7724FieldPositionOnlyHandlerC2ERNS_13FieldPositionE(ptr noundef nonnull align 8 dereferenceable(26) %0, ptr noundef nonnull align 8 dereferenceable(20) %1) unnamed_addr #0 align 2 {
  %3 = alloca ptr, align 8
  %4 = alloca ptr, align 8
  store ptr %0, ptr %3, align 8, !tbaa !12
  store ptr %1, ptr %4, align 8, !tbaa !14
  %5 = load ptr, ptr %3, align 8
  call void @_ZN6icu_7720FieldPositionHandlerC2Ev(ptr noundef nonnull align 8 dereferenceable(12) %5) #10
  store ptr getelementptr inbounds inrange(-16, 40) ({ [7 x ptr] }, ptr @_ZTVN6icu_7724FieldPositionOnlyHandlerE, i32 0, i32 0, i32 2), ptr %5, align 8, !tbaa !16
  %6 = getelementptr inbounds nuw %"class.icu_77::FieldPositionOnlyHandler", ptr %5, i32 0, i32 2
  %7 = load ptr, ptr %4, align 8, !tbaa !14
  store ptr %7, ptr %6, align 8, !tbaa !14
  %8 = getelementptr inbounds nuw %"class.icu_77::FieldPositionOnlyHandler", ptr %5, i32 0, i32 3
  store i8 0, ptr %8, align 8, !tbaa !18
  %9 = getelementptr inbounds nuw %"class.icu_77::FieldPositionOnlyHandler", ptr %5, i32 0, i32 4
  store i8 0, ptr %9, align 1, !tbaa !20
  ret void
}