; Function Attrs: mustprogress nofree norecurse nosync nounwind willreturn memory(argmem: write) uwtable
define void @_ZN6icu_7724FieldPositionOnlyHandlerC2ERNS_13FieldPositionE(ptr noundef nonnull writeonly align 8 captures(none) dereferenceable(26) initializes((0, 12), (16, 26)) %0, ptr noundef nonnull align 8 dereferenceable(20) %1) unnamed_addr #3 align 2 {
  %3 = getelementptr inbounds nuw i8, ptr %0, i64 8
  store i32 0, ptr %3, align 8, !tbaa !3
  store ptr getelementptr inbounds nuw inrange(-16, 40) (i8, ptr @_ZTVN6icu_7724FieldPositionOnlyHandlerE, i64 16), ptr %0, align 8, !tbaa !8
  %4 = getelementptr inbounds nuw i8, ptr %0, i64 16
  store ptr %1, ptr %4, align 8, !tbaa !10
  %5 = getelementptr inbounds nuw i8, ptr %0, i64 24
  store i8 0, ptr %5, align 8, !tbaa !13
  %6 = getelementptr inbounds nuw i8, ptr %0, i64 25
  store i8 0, ptr %6, align 1, !tbaa !15
  ret void
}